target datalayout = "e-m:e-p270:32:32-p271:32:32-p272:64:64-i64:64-i128:128-f80:128-n8:16:32:64-S128"
target triple = "x86_64-pc-linux-gnu"

%class.Pipeline_Use_Element = type { i32, i32, i32, i8, %class.Pipeline_Use_Cycle_Mask }
%class.Pipeline_Use_Cycle_Mask = type { i32 }
%class.Phase = type { i32, ptr }
%class.PhaseCFG = type { %class.Phase, ptr, ptr, %class.Block_List, i32, ptr, ptr, i8, ptr, %class.Block_Array, ptr, double, ptr, ptr }
%class.Block_List = type <{ %class.Block_Array, i32, [4 x i8] }>
%class.Block_Array = type { i32, ptr, ptr }
%class.Block = type { %class.CFGElement, %class.Node_List, %class.Block_Array, i32, i32, i32, ptr, ptr, i32, i32, i32, i32, i32, i32, i32, i32, i8, i32 }
%class.CFGElement = type { ptr, double }
%class.Node_List = type <{ %class.Node_Array, i32, [4 x i8] }>
%class.Node_Array = type { ptr, i32, ptr }
%class.Node = type <{ ptr, ptr, ptr, i32, i32, i32, i32, i32, i32, i32, [4 x i8] }>
%class.Scheduling = type { ptr, ptr, ptr, i32, [4 x i8], %class.Node_List, %class.Node_List, ptr, %class.Node_List, %class.Node_List, ptr, i32, i32, ptr, ptr, ptr, ptr, i32, i32, [11 x %class.Pipeline_Use_Element], %class.Pipeline_Use }
%class.Pipeline_Use = type { i32, i32, i32, ptr }

; Function Attrs: mustprogress nounwind uwtable
define linkonce_odr hidden void @_ZN4Copy16pd_zero_to_bytesEPvm(ptr noundef %0, i64 noundef %1) #1 comdat align 2 {
  %3 = alloca ptr, align 8
  %4 = alloca i64, align 8
  store ptr %0, ptr %3, align 8
  store i64 %1, ptr %4, align 8
  %5 = load ptr, ptr %3, align 8
  %6 = load i64, ptr %4, align 8
  call void @llvm.memset.p0.i64(ptr align 1 %5, i8 0, i64 %6, i1 false)
  ret void
}

; Function Attrs: mustprogress nounwind uwtable
define linkonce_odr hidden void @_ZN4Copy13zero_to_bytesEPvm(ptr noundef %0, i64 noundef %1) #1 comdat align 2 {
  %3 = alloca ptr, align 8
  %4 = alloca i64, align 8
  store ptr %0, ptr %3, align 8
  store i64 %1, ptr %4, align 8
  %5 = load ptr, ptr %3, align 8
  %6 = load i64, ptr %4, align 8
  call void @_ZN4Copy16pd_zero_to_bytesEPvm(ptr noundef %5, i64 noundef %6)
  ret void
}

; Function Attrs: mustprogress nounwind uwtable
define linkonce_odr hidden noundef ptr @_ZNK11Block_ArrayixEj(ptr noundef nonnull align 8 dereferenceable(24) %0, i32 noundef %1) #1 comdat align 2 {
  %3 = alloca ptr, align 8
  %4 = alloca i32, align 4
  store ptr %0, ptr %3, align 8
  store i32 %1, ptr %4, align 4
  %5 = load ptr, ptr %3, align 8
  %6 = getelementptr inbounds %class.Block_Array, ptr %5, i32 0, i32 2
  %7 = load ptr, ptr %6, align 8
  %8 = load i32, ptr %4, align 4
  %9 = zext i32 %8 to i64
  %10 = getelementptr inbounds ptr, ptr %7, i64 %9
  %11 = load ptr, ptr %10, align 8
  ret ptr %11
}

; Function Attrs: mustprogress nounwind uwtable
define linkonce_odr hidden noundef i32 @_ZNK9Node_List4sizeEv(ptr noundef nonnull align 8 dereferenceable(28) %0) #1 comdat align 2 {
  %2 = alloca ptr, align 8
  store ptr %0, ptr %2, align 8
  %3 = load ptr, ptr %2, align 8
  %4 = getelementptr inbounds %class.Node_List, ptr %3, i32 0, i32 1
  %5 = load i32, ptr %4, align 8
  ret i32 %5
}

; Function Attrs: mustprogress nounwind uwtable
define linkonce_odr hidden noundef ptr @_ZNK10Node_ArrayixEj(ptr noundef nonnull align 8 dereferenceable(24) %0, i32 noundef %1) #1 comdat align 2 {
  %3 = alloca ptr, align 8
  %4 = alloca i32, align 4
  store ptr %0, ptr %3, align 8
  store i32 %1, ptr %4, align 4
  %5 = load ptr, ptr %3, align 8
  %6 = load i32, ptr %4, align 4
  %7 = getelementptr inbounds %class.Node_Array, ptr %5, i32 0, i32 1
  %8 = load i32, ptr %7, align 8
  %9 = icmp ult i32 %6, %8
  br i1 %9, label %10, label %17

10:                                               ; preds = %2
  %11 = getelementptr inbounds %class.Node_Array, ptr %5, i32 0, i32 2
  %12 = load ptr, ptr %11, align 8
  %13 = load i32, ptr %4, align 4
  %14 = zext i32 %13 to i64
  %15 = getelementptr inbounds ptr, ptr %12, i64 %14
  %16 = load ptr, ptr %15, align 8
  br label %18

17:                                               ; preds = %2
  br label %18

18:                                               ; preds = %17, %10
  %19 = phi ptr [ %16, %10 ], [ null, %17 ]
  ret ptr %19
}

; Function Attrs: mustprogress nounwind uwtable
define linkonce_odr hidden void @_ZN10Node_Array5clearEv(ptr noundef nonnull align 8 dereferenceable(24) %0) #1 comdat align 2 {
  %2 = alloca ptr, align 8
  store ptr %0, ptr %2, align 8
  %3 = load ptr, ptr %2, align 8
  %4 = getelementptr inbounds %class.Node_Array, ptr %3, i32 0, i32 2
  %5 = load ptr, ptr %4, align 8
  %6 = getelementptr inbounds %class.Node_Array, ptr %3, i32 0, i32 1
  %7 = load i32, ptr %6, align 8
  %8 = zext i32 %7 to i64
  %9 = mul i64 %8, 8
  call void @_ZN4Copy13zero_to_bytesEPvm(ptr noundef %5, i64 noundef %9)
  ret void
}

; Function Attrs: mustprogress nounwind uwtable
define linkonce_odr hidden noundef ptr @_ZNK8PhaseCFG18get_block_for_nodeEPK4Node(ptr noundef nonnull align 8 dereferenceable(160) %0, ptr noundef %1) #1 comdat align 2 {
  %3 = alloca ptr, align 8
  %4 = alloca ptr, align 8
  store ptr %0, ptr %3, align 8
  store ptr %1, ptr %4, align 8
  %5 = load ptr, ptr %3, align 8
  %6 = getelementptr inbounds %class.PhaseCFG, ptr %5, i32 0, i32 9
  %7 = load ptr, ptr %4, align 8
  %8 = getelementptr inbounds %class.Node, ptr %7, i32 0, i32 7
  %9 = load i32, ptr %8, align 8
  %10 = call noundef ptr @_ZNK11Block_ArrayixEj(ptr noundef nonnull align 8 dereferenceable(24) %6, i32 noundef %9)
  ret ptr %10
}

; Function Attrs: mustprogress nounwind uwtable
define linkonce_odr hidden noundef ptr @_ZNK4Node2inEj(ptr noundef nonnull align 8 dereferenceable(52) %0, i32 noundef %1) #1 comdat align 2 {
  %3 = alloca ptr, align 8
  %4 = alloca i32, align 4
  store ptr %0, ptr %3, align 8
  store i32 %1, ptr %4, align 4
  %5 = load ptr, ptr %3, align 8
  %6 = getelementptr inbounds %class.Node, ptr %5, i32 0, i32 1
  %7 = load ptr, ptr %6, align 8
  %8 = load i32, ptr %4, align 4
  %9 = zext i32 %8 to i64
  %10 = getelementptr inbounds ptr, ptr %7, i64 %9
  %11 = load ptr, ptr %10, align 8
  ret ptr %11
}

; Function Attrs: mustprogress nounwind uwtable
define linkonce_odr hidden noundef i32 @_ZNK4Node3lenEv(ptr noundef nonnull align 8 dereferenceable(52) %0) #1 comdat align 2 {
  %2 = alloca ptr, align 8
  store ptr %0, ptr %2, align 8
  %3 = load ptr, ptr %2, align 8
  %4 = getelementptr inbounds %class.Node, ptr %3, i32 0, i32 4
  %5 = load i32, ptr %4, align 4
  ret i32 %5
}

; Function Attrs: mustprogress nounwind uwtable
define linkonce_odr hidden noundef zeroext i1 @_ZNK4Node7is_ProjEv(ptr noundef nonnull align 8 dereferenceable(52) %0) #1 comdat align 2 {
  %2 = alloca ptr, align 8
  store ptr %0, ptr %2, align 8
  %3 = load ptr, ptr %2, align 8
  %4 = getelementptr inbounds %class.Node, ptr %3, i32 0, i32 8
  %5 = load i32, ptr %4, align 4
  %6 = and i32 %5, 15
  %7 = icmp eq i32 %6, 8
  ret i1 %7
}

; Function Attrs: mustprogress nounwind uwtable
define linkonce_odr hidden noundef i32 @_ZNK5Block15number_of_nodesEv(ptr noundef nonnull align 8 dereferenceable(144) %0) #1 comdat align 2 {
  %2 = alloca ptr, align 8
  store ptr %0, ptr %2, align 8
  %3 = load ptr, ptr %2, align 8
  %4 = getelementptr inbounds %class.Block, ptr %3, i32 0, i32 1
  %5 = call noundef i32 @_ZNK9Node_List4sizeEv(ptr noundef nonnull align 8 dereferenceable(28) %4)
  ret i32 %5
}

; Function Attrs: mustprogress nounwind uwtable
define linkonce_odr hidden noundef ptr @_ZNK5Block8get_nodeEj(ptr noundef nonnull align 8 dereferenceable(144) %0, i32 noundef %1) #1 comdat align 2 {
  %3 = alloca ptr, align 8
  %4 = alloca i32, align 4
  store ptr %0, ptr %3, align 8
  store i32 %1, ptr %4, align 4
  %5 = load ptr, ptr %3, align 8
  %6 = getelementptr inbounds %class.Block, ptr %5, i32 0, i32 1
  %7 = load i32, ptr %4, align 4
  %8 = call noundef ptr @_ZNK10Node_ArrayixEj(ptr noundef nonnull align 8 dereferenceable(24) %6, i32 noundef %7)
  ret ptr %8
}

; Function Attrs: mustprogress nounwind uwtable
define linkonce_odr hidden void @_ZN9Node_List5clearEv(ptr noundef nonnull align 8 dereferenceable(28) %0) #1 comdat align 2 {
  %2 = alloca ptr, align 8
  store ptr %0, ptr %2, align 8
  %3 = load ptr, ptr %2, align 8
  %4 = getelementptr inbounds %class.Node_List, ptr %3, i32 0, i32 1
  store i32 0, ptr %4, align 8
  call void @_ZN10Node_Array5clearEv(ptr noundef nonnull align 8 dereferenceable(24) %3)
  ret void
}

; Function Attrs: mustprogress nounwind uwtable
define hidden void @_ZN10Scheduling15ComputeUseCountEPK5Block(ptr noundef nonnull align 8 dereferenceable(472) %0, ptr noundef %1) #1 align 2 {
  %3 = alloca ptr, align 8
  %4 = alloca ptr, align 8
  %5 = alloca i32, align 4
  %6 = alloca i32, align 4
  %7 = alloca i32, align 4
  %8 = alloca ptr, align 8
  %9 = alloca i32, align 4
  %10 = alloca ptr, align 8
  store ptr %0, ptr %3, align 8
  store ptr %1, ptr %4, align 8
  %11 = load ptr, ptr %3, align 8
  %12 = getelementptr inbounds %class.Scheduling, ptr %11, i32 0, i32 6
  call void @_ZN9Node_List5clearEv(ptr noundef nonnull align 8 dereferenceable(28) %12)
  %13 = getelementptr inbounds %class.Scheduling, ptr %11, i32 0, i32 5
  call void @_ZN9Node_List5clearEv(ptr noundef nonnull align 8 dereferenceable(28) %13)
  %14 = getelementptr inbounds %class.Scheduling, ptr %11, i32 0, i32 15
  store ptr null, ptr %14, align 8
  store i32 0, ptr %5, align 4
  br label %15

15:                                               ; preds = %30, %2
  %16 = load i32, ptr %5, align 4
  %17 = getelementptr inbounds %class.Scheduling, ptr %11, i32 0, i32 11
  %18 = load i32, ptr %17, align 8
  %19 = icmp ult i32 %16, %18
  br i1 %19, label %20, label %33

20:                                               ; preds = %15
  %21 = getelementptr inbounds %class.Scheduling, ptr %11, i32 0, i32 10
  %22 = load ptr, ptr %21, align 8
  %23 = load ptr, ptr %4, align 8
  %24 = load i32, ptr %5, align 4
  %25 = call noundef ptr @_ZNK5Block8get_nodeEj(ptr noundef nonnull align 8 dereferenceable(144) %23, i32 noundef %24)
  %26 = getelementptr inbounds %class.Node, ptr %25, i32 0, i32 7
  %27 = load i32, ptr %26, align 8
  %28 = zext i32 %27 to i64
  %29 = getelementptr inbounds i16, ptr %22, i64 %28
  store i16 1, ptr %29, align 2
  br label %30

30:                                               ; preds = %20
  %31 = load i32, ptr %5, align 4
  %32 = add i32 %31, 1
  store i32 %32, ptr %5, align 4
  br label %15, !llvm.loop !57

33:                                               ; preds = %15
  %34 = getelementptr inbounds %class.Scheduling, ptr %11, i32 0, i32 12
  %35 = load i32, ptr %34, align 4
  store i32 %35, ptr %6, align 4
  br label %36

36:                                               ; preds = %51, %33
  %37 = load i32, ptr %6, align 4
  %38 = load ptr, ptr %4, align 8
  %39 = call noundef i32 @_ZNK5Block15number_of_nodesEv(ptr noundef nonnull align 8 dereferenceable(144) %38)
  %40 = icmp ult i32 %37, %39
  br i1 %40, label %41, label %54

41:                                               ; preds = %36
  %42 = getelementptr inbounds %class.Scheduling, ptr %11, i32 0, i32 10
  %43 = load ptr, ptr %42, align 8
  %44 = load ptr, ptr %4, align 8
  %45 = load i32, ptr %6, align 4
  %46 = call noundef ptr @_ZNK5Block8get_nodeEj(ptr noundef nonnull align 8 dereferenceable(144) %44, i32 noundef %45)
  %47 = getelementptr inbounds %class.Node, ptr %46, i32 0, i32 7
  %48 = load i32, ptr %47, align 8
  %49 = zext i32 %48 to i64
  %50 = getelementptr inbounds i16, ptr %43, i64 %49
  store i16 1, ptr %50, align 2
  br label %51

51:                                               ; preds = %41
  %52 = load i32, ptr %6, align 4
  %53 = add i32 %52, 1
  store i32 %53, ptr %6, align 4
  br label %36, !llvm.loop !58

54:                                               ; preds = %36
  %55 = getelementptr inbounds %class.Scheduling, ptr %11, i32 0, i32 12
  %56 = load i32, ptr %55, align 4
  %57 = sub i32 %56, 1
  store i32 %57, ptr %7, align 4
  br label %58

58:                                               ; preds = %133, %54
  %59 = load i32, ptr %7, align 4
  %60 = getelementptr inbounds %class.Scheduling, ptr %11, i32 0, i32 11
  %61 = load i32, ptr %60, align 8
  %62 = icmp uge i32 %59, %61
  br i1 %62, label %63, label %136

63:                                               ; preds = %58
  %64 = load ptr, ptr %4, align 8
  %65 = load i32, ptr %7, align 4
  %66 = call noundef ptr @_ZNK5Block8get_nodeEj(ptr noundef nonnull align 8 dereferenceable(144) %64, i32 noundef %65)
  store ptr %66, ptr %8, align 8
  %67 = load ptr, ptr %8, align 8
  %68 = call noundef zeroext i1 @_ZNK4Node7is_ProjEv(ptr noundef nonnull align 8 dereferenceable(52) %67)
  br i1 %68, label %69, label %70

69:                                               ; preds = %63
  br label %133

70:                                               ; preds = %63
  store i32 0, ptr %9, align 4
  br label %71

71:                                               ; preds = %107, %70
  %72 = load i32, ptr %9, align 4
  %73 = load ptr, ptr %8, align 8
  %74 = call noundef i32 @_ZNK4Node3lenEv(ptr noundef nonnull align 8 dereferenceable(52) %73)
  %75 = icmp ult i32 %72, %74
  br i1 %75, label %76, label %110

76:                                               ; preds = %71
  %77 = load ptr, ptr %8, align 8
  %78 = load i32, ptr %9, align 4
  %79 = call noundef ptr @_ZNK4Node2inEj(ptr noundef nonnull align 8 dereferenceable(52) %77, i32 noundef %78)
  store ptr %79, ptr %10, align 8
  %80 = load ptr, ptr %10, align 8
  %81 = icmp ne ptr %80, null
  br i1 %81, label %83, label %82

82:                                               ; preds = %76
  br label %107

83:                                               ; preds = %76
  %84 = getelementptr inbounds %class.Scheduling, ptr %11, i32 0, i32 1
  %85 = load ptr, ptr %84, align 8
  %86 = load ptr, ptr %10, align 8
  %87 = call noundef ptr @_ZNK8PhaseCFG18get_block_for_nodeEPK4Node(ptr noundef nonnull align 8 dereferenceable(160) %85, ptr noundef %86)
  %88 = load ptr, ptr %4, align 8
  %89 = icmp eq ptr %87, %88
  br i1 %89, label %90, label %106

90:                                               ; preds = %83
  %91 = load ptr, ptr %10, align 8
  %92 = call noundef zeroext i1 @_ZNK4Node7is_ProjEv(ptr noundef nonnull align 8 dereferenceable(52) %91)
  br i1 %92, label %93, label %96

93:                                               ; preds = %90
  %94 = load ptr, ptr %10, align 8
  %95 = call noundef ptr @_ZNK4Node2inEj(ptr noundef nonnull align 8 dereferenceable(52) %94, i32 noundef 0)
  store ptr %95, ptr %10, align 8
  br label %96

96:                                               ; preds = %93, %90
  %97 = getelementptr inbounds %class.Scheduling, ptr %11, i32 0, i32 10
  %98 = load ptr, ptr %97, align 8
  %99 = load ptr, ptr %10, align 8
  %100 = getelementptr inbounds %class.Node, ptr %99, i32 0, i32 7
  %101 = load i32, ptr %100, align 8
  %102 = zext i32 %101 to i64
  %103 = getelementptr inbounds i16, ptr %98, i64 %102
  %104 = load i16, ptr %103, align 2
  %105 = add i16 %104, 1
  store i16 %105, ptr %103, align 2
  br label %106

106:                                              ; preds = %96, %83
  br label %107

107:                                              ; preds = %106, %82
  %108 = load i32, ptr %9, align 4
  %109 = add i32 %108, 1
  store i32 %109, ptr %9, align 4
  br label %71, !llvm.loop !59

110:                                              ; preds = %71
  %111 = getelementptr inbounds %class.Scheduling, ptr %11, i32 0, i32 10
  %112 = load ptr, ptr %111, align 8
  %113 = load ptr, ptr %8, align 8
  %114 = getelementptr inbounds %class.Node, ptr %113, i32 0, i32 7
  %115 = load i32, ptr %114, align 8
  %116 = zext i32 %115 to i64
  %117 = getelementptr inbounds i16, ptr %112, i64 %116
  %118 = load i16, ptr %117, align 2
  %119 = icmp ne i16 %118, 0
  br i1 %119, label %132, label %120

120:                                              ; preds = %110
  %121 = getelementptr inbounds %class.Scheduling, ptr %11, i32 0, i32 18
  %122 = load i32, ptr %121, align 4
  %123 = trunc i32 %122 to i16
  %124 = getelementptr inbounds %class.Scheduling, ptr %11, i32 0, i32 13
  %125 = load ptr, ptr %124, align 8
  %126 = load ptr, ptr %8, align 8
  %127 = getelementptr inbounds %class.Node, ptr %126, i32 0, i32 7
  %128 = load i32, ptr %127, align 8
  %129 = zext i32 %128 to i64
  %130 = getelementptr inbounds i16, ptr %125, i64 %129
  store i16 %123, ptr %130, align 2
  %131 = load ptr, ptr %8, align 8
  call void @_ZN10Scheduling22AddNodeToAvailableListEP4Node(ptr noundef nonnull align 8 dereferenceable(472) %11, ptr noundef %131)
  br label %132

132:                                              ; preds = %120, %110
  br label %133

133:                                              ; preds = %132, %69
  %134 = load i32, ptr %7, align 4
  %135 = add i32 %134, -1
  store i32 %135, ptr %7, align 4
  br label %58, !llvm.loop !60

136:                                              ; preds = %58
  ret void
}