; Function Attrs: mustprogress nounwind uwtable
define hidden void @_ZN10Scheduling15ComputeUseCountEPK5Block(ptr noundef nonnull align 8 dereferenceable(472) %0, ptr noundef readonly %1) local_unnamed_addr #0 align 2 {
  %3 = getelementptr inbounds i8, ptr %0, i64 88
  store i32 0, ptr %3, align 8
  %4 = getelementptr inbounds i8, ptr %0, i64 80
  %5 = load ptr, ptr %4, align 8
  %6 = getelementptr inbounds i8, ptr %0, i64 72
  %7 = load i32, ptr %6, align 8
  %8 = zext i32 %7 to i64
  %9 = shl nuw nsw i64 %8, 3
  tail call void @llvm.memset.p0.i64(ptr align 1 %5, i8 0, i64 %9, i1 false)
  %10 = getelementptr inbounds i8, ptr %0, i64 56
  store i32 0, ptr %10, align 8
  %11 = getelementptr inbounds i8, ptr %0, i64 48
  %12 = load ptr, ptr %11, align 8
  %13 = getelementptr inbounds i8, ptr %0, i64 40
  %14 = load i32, ptr %13, align 8
  %15 = zext i32 %14 to i64
  %16 = shl nuw nsw i64 %15, 3
  tail call void @llvm.memset.p0.i64(ptr align 1 %12, i8 0, i64 %16, i1 false)
  %17 = getelementptr inbounds i8, ptr %0, i64 200
  store ptr null, ptr %17, align 8
  %18 = getelementptr inbounds i8, ptr %0, i64 176
  %19 = load i32, ptr %18, align 8
  %.not48 = icmp eq i32 %19, 0
  br i1 %.not48, label %._crit_edge, label %_ZNK5Block8get_nodeEj.exit.lr.ph

_ZNK5Block8get_nodeEj.exit.lr.ph:                 ; preds = %2
  %20 = getelementptr inbounds i8, ptr %0, i64 168
  %21 = getelementptr inbounds i8, ptr %1, i64 24
  %22 = getelementptr inbounds i8, ptr %1, i64 32
  br label %_ZNK5Block8get_nodeEj.exit

_ZNK5Block8get_nodeEj.exit:                       ; preds = %_ZNK5Block8get_nodeEj.exit.lr.ph, %_ZNK5Block8get_nodeEj.exit
  %indvars.iv = phi i64 [ 0, %_ZNK5Block8get_nodeEj.exit.lr.ph ], [ %indvars.iv.next, %_ZNK5Block8get_nodeEj.exit ]
  %23 = load ptr, ptr %20, align 8
  %24 = load i32, ptr %21, align 8
  %25 = zext i32 %24 to i64
  %26 = icmp ult i64 %indvars.iv, %25
  tail call void @llvm.assume(i1 %26)
  %27 = load ptr, ptr %22, align 8
  %28 = getelementptr inbounds ptr, ptr %27, i64 %indvars.iv
  %29 = load ptr, ptr %28, align 8
  %30 = getelementptr inbounds i8, ptr %29, i64 40
  %31 = load i32, ptr %30, align 8
  %32 = zext i32 %31 to i64
  %33 = getelementptr inbounds i16, ptr %23, i64 %32
  store i16 1, ptr %33, align 2
  %indvars.iv.next = add nuw nsw i64 %indvars.iv, 1
  %34 = load i32, ptr %18, align 8
  %35 = zext i32 %34 to i64
  %36 = icmp ult i64 %indvars.iv.next, %35
  br i1 %36, label %_ZNK5Block8get_nodeEj.exit, label %._crit_edge, !llvm.loop !63

._crit_edge:                                      ; preds = %_ZNK5Block8get_nodeEj.exit, %2
  %37 = phi i32 [ 0, %2 ], [ %34, %_ZNK5Block8get_nodeEj.exit ]
  %38 = getelementptr inbounds i8, ptr %0, i64 180
  %39 = load i32, ptr %38, align 4
  %40 = getelementptr inbounds i8, ptr %1, i64 40
  %41 = load i32, ptr %40, align 8
  %42 = icmp ult i32 %39, %41
  br i1 %42, label %_ZNK5Block8get_nodeEj.exit35.lr.ph, label %._crit_edge39

_ZNK5Block8get_nodeEj.exit35.lr.ph:               ; preds = %._crit_edge
  %43 = getelementptr inbounds i8, ptr %0, i64 168
  %44 = getelementptr inbounds i8, ptr %1, i64 24
  %45 = getelementptr inbounds i8, ptr %1, i64 32
  %46 = zext i32 %39 to i64
  br label %_ZNK5Block8get_nodeEj.exit35

_ZNK5Block8get_nodeEj.exit35:                     ; preds = %_ZNK5Block8get_nodeEj.exit35.lr.ph, %_ZNK5Block8get_nodeEj.exit35
  %indvars.iv51 = phi i64 [ %46, %_ZNK5Block8get_nodeEj.exit35.lr.ph ], [ %indvars.iv.next52, %_ZNK5Block8get_nodeEj.exit35 ]
  %47 = load ptr, ptr %43, align 8
  %48 = load i32, ptr %44, align 8
  %49 = zext i32 %48 to i64
  %50 = icmp ult i64 %indvars.iv51, %49
  tail call void @llvm.assume(i1 %50)
  %51 = load ptr, ptr %45, align 8
  %52 = getelementptr inbounds ptr, ptr %51, i64 %indvars.iv51
  %53 = load ptr, ptr %52, align 8
  %54 = getelementptr inbounds i8, ptr %53, i64 40
  %55 = load i32, ptr %54, align 8
  %56 = zext i32 %55 to i64
  %57 = getelementptr inbounds i16, ptr %47, i64 %56
  store i16 1, ptr %57, align 2
  %indvars.iv.next52 = add nuw nsw i64 %indvars.iv51, 1
  %58 = load i32, ptr %40, align 8
  %59 = zext i32 %58 to i64
  %60 = icmp ult i64 %indvars.iv.next52, %59
  br i1 %60, label %_ZNK5Block8get_nodeEj.exit35, label %._crit_edge39.loopexit, !llvm.loop !64

._crit_edge39.loopexit:                           ; preds = %_ZNK5Block8get_nodeEj.exit35
  %.pre = load i32, ptr %38, align 4
  %.pre57 = load i32, ptr %18, align 8
  br label %._crit_edge39

._crit_edge39:                                    ; preds = %._crit_edge39.loopexit, %._crit_edge
  %61 = phi i32 [ %.pre57, %._crit_edge39.loopexit ], [ %37, %._crit_edge ]
  %62 = phi i32 [ %.pre, %._crit_edge39.loopexit ], [ %39, %._crit_edge ]
  %.03042 = add i32 %62, -1
  %.not43 = icmp ult i32 %.03042, %61
  br i1 %.not43, label %._crit_edge47, label %.lr.ph46

.lr.ph46:                                         ; preds = %._crit_edge39
  %63 = getelementptr inbounds i8, ptr %1, i64 24
  %64 = getelementptr inbounds i8, ptr %1, i64 32
  %65 = getelementptr inbounds i8, ptr %0, i64 8
  %66 = getelementptr inbounds i8, ptr %0, i64 168
  %67 = getelementptr inbounds i8, ptr %0, i64 220
  %68 = getelementptr inbounds i8, ptr %0, i64 184
  br label %69

69:                                               ; preds = %.lr.ph46, %129
  %.03044 = phi i32 [ %.03042, %.lr.ph46 ], [ %.030, %129 ]
  %70 = load i32, ptr %63, align 8
  %71 = icmp ugt i32 %70, %.03044
  br i1 %71, label %72, label %_ZNK5Block8get_nodeEj.exit36

72:                                               ; preds = %69
  %73 = load ptr, ptr %64, align 8
  %74 = zext i32 %.03044 to i64
  %75 = getelementptr inbounds ptr, ptr %73, i64 %74
  %76 = load ptr, ptr %75, align 8
  br label %_ZNK5Block8get_nodeEj.exit36

_ZNK5Block8get_nodeEj.exit36:                     ; preds = %69, %72
  %77 = phi ptr [ %76, %72 ], [ null, %69 ]
  %78 = getelementptr inbounds i8, ptr %77, i64 44
  %79 = load i32, ptr %78, align 4
  %80 = and i32 %79, 15
  %81 = icmp eq i32 %80, 8
  br i1 %81, label %129, label %.preheader

.preheader:                                       ; preds = %_ZNK5Block8get_nodeEj.exit36
  %82 = getelementptr inbounds i8, ptr %77, i64 28
  %83 = load i32, ptr %82, align 4
  %.not49 = icmp eq i32 %83, 0
  br i1 %.not49, label %._crit_edge41, label %.lr.ph

.lr.ph:                                           ; preds = %.preheader
  %84 = getelementptr inbounds i8, ptr %77, i64 8
  br label %85

85:                                               ; preds = %.lr.ph, %114
  %86 = phi i32 [ %83, %.lr.ph ], [ %115, %114 ]
  %indvars.iv54 = phi i64 [ 0, %.lr.ph ], [ %indvars.iv.next55, %114 ]
  %87 = load ptr, ptr %84, align 8
  %88 = getelementptr inbounds ptr, ptr %87, i64 %indvars.iv54
  %89 = load ptr, ptr %88, align 8
  %.not34 = icmp eq ptr %89, null
  br i1 %.not34, label %114, label %90

90:                                               ; preds = %85
  %91 = load ptr, ptr %65, align 8
  %92 = getelementptr inbounds i8, ptr %89, i64 40
  %93 = load i32, ptr %92, align 8
  %94 = getelementptr inbounds i8, ptr %91, i64 120
  %95 = load ptr, ptr %94, align 8
  %96 = zext i32 %93 to i64
  %97 = getelementptr inbounds ptr, ptr %95, i64 %96
  %98 = load ptr, ptr %97, align 8
  %99 = icmp eq ptr %98, %1
  br i1 %99, label %100, label %114

100:                                              ; preds = %90
  %101 = getelementptr inbounds i8, ptr %89, i64 44
  %102 = load i32, ptr %101, align 4
  %103 = and i32 %102, 15
  %104 = icmp eq i32 %103, 8
  br i1 %104, label %105, label %109

105:                                              ; preds = %100
  %106 = getelementptr inbounds i8, ptr %89, i64 8
  %107 = load ptr, ptr %106, align 8
  %108 = load ptr, ptr %107, align 8
  %.phi.trans.insert = getelementptr inbounds i8, ptr %108, i64 40
  %.pre58 = load i32, ptr %.phi.trans.insert, align 8
  %.pre60 = zext i32 %.pre58 to i64
  br label %109

109:                                              ; preds = %105, %100
  %.pre-phi = phi i64 [ %.pre60, %105 ], [ %96, %100 ]
  %110 = load ptr, ptr %66, align 8
  %111 = getelementptr inbounds i16, ptr %110, i64 %.pre-phi
  %112 = load i16, ptr %111, align 2
  %113 = add i16 %112, 1
  store i16 %113, ptr %111, align 2
  %.pre59 = load i32, ptr %82, align 4
  br label %114

114:                                              ; preds = %90, %109, %85
  %115 = phi i32 [ %86, %90 ], [ %.pre59, %109 ], [ %86, %85 ]
  %indvars.iv.next55 = add nuw nsw i64 %indvars.iv54, 1
  %116 = zext i32 %115 to i64
  %117 = icmp ult i64 %indvars.iv.next55, %116
  br i1 %117, label %85, label %._crit_edge41, !llvm.loop !65

._crit_edge41:                                    ; preds = %114, %.preheader
  %118 = load ptr, ptr %66, align 8
  %119 = getelementptr inbounds i8, ptr %77, i64 40
  %120 = load i32, ptr %119, align 8
  %121 = zext i32 %120 to i64
  %122 = getelementptr inbounds i16, ptr %118, i64 %121
  %123 = load i16, ptr %122, align 2
  %.not33 = icmp eq i16 %123, 0
  br i1 %.not33, label %124, label %129

124:                                              ; preds = %._crit_edge41
  %125 = load i32, ptr %67, align 4
  %126 = trunc i32 %125 to i16
  %127 = load ptr, ptr %68, align 8
  %128 = getelementptr inbounds i16, ptr %127, i64 %121
  store i16 %126, ptr %128, align 2
  tail call void @_ZN10Scheduling22AddNodeToAvailableListEP4Node(ptr noundef nonnull align 8 dereferenceable(472) %0, ptr noundef nonnull %77)
  br label %129

129:                                              ; preds = %._crit_edge41, %124, %_ZNK5Block8get_nodeEj.exit36
  %.030 = add i32 %.03044, -1
  %130 = load i32, ptr %18, align 8
  %.not = icmp ult i32 %.030, %130
  br i1 %.not, label %._crit_edge47, label %69, !llvm.loop !66

._crit_edge47:                                    ; preds = %129, %._crit_edge39
  ret void
}